target datalayout = "e-m:e-p270:32:32-p271:32:32-p272:64:64-i64:64-i128:128-f80:128-n8:16:32:64-S128"
target triple = "x86_64-pc-linux-gnu"

; Function Attrs: alwaysinline nounwind uwtable
define internal void @idct4_1d(ptr noundef %0, i64 noundef %1, ptr noundef %2, i32 noundef %3) #6 {
  %5 = alloca ptr, align 8
  %6 = alloca i64, align 8
  %7 = alloca ptr, align 8
  %8 = alloca i32, align 4
  %9 = alloca i64, align 8
  %10 = alloca i64, align 8
  %11 = alloca i64, align 8
  %12 = alloca i64, align 8
  store ptr %0, ptr %5, align 8, !tbaa !116
  store i64 %1, ptr %6, align 8, !tbaa !12
  store ptr %2, ptr %7, align 8, !tbaa !116
  store i32 %3, ptr %8, align 4, !tbaa !19
  call void @llvm.lifetime.start.p0(i64 8, ptr %9) #9
  call void @llvm.lifetime.start.p0(i64 8, ptr %10) #9
  call void @llvm.lifetime.start.p0(i64 8, ptr %11) #9
  call void @llvm.lifetime.start.p0(i64 8, ptr %12) #9
  %13 = load ptr, ptr %5, align 8, !tbaa !116
  %14 = load i64, ptr %6, align 8, !tbaa !12
  %15 = mul nsw i64 0, %14
  %16 = getelementptr inbounds i32, ptr %13, i64 %15
  %17 = load i32, ptr %16, align 4, !tbaa !19
  %18 = sext i32 %17 to i64
  %19 = load ptr, ptr %5, align 8, !tbaa !116
  %20 = load i64, ptr %6, align 8, !tbaa !12
  %21 = mul nsw i64 2, %20
  %22 = getelementptr inbounds i32, ptr %19, i64 %21
  %23 = load i32, ptr %22, align 4, !tbaa !19
  %24 = sext i32 %23 to i64
  %25 = add nsw i64 %18, %24
  %26 = mul nsw i64 %25, 11585
  %27 = add nsw i64 %26, 8192
  %28 = ashr i64 %27, 14
  store i64 %28, ptr %9, align 8, !tbaa !12
  %29 = load ptr, ptr %5, align 8, !tbaa !116
  %30 = load i64, ptr %6, align 8, !tbaa !12
  %31 = mul nsw i64 0, %30
  %32 = getelementptr inbounds i32, ptr %29, i64 %31
  %33 = load i32, ptr %32, align 4, !tbaa !19
  %34 = sext i32 %33 to i64
  %35 = load ptr, ptr %5, align 8, !tbaa !116
  %36 = load i64, ptr %6, align 8, !tbaa !12
  %37 = mul nsw i64 2, %36
  %38 = getelementptr inbounds i32, ptr %35, i64 %37
  %39 = load i32, ptr %38, align 4, !tbaa !19
  %40 = sext i32 %39 to i64
  %41 = sub nsw i64 %34, %40
  %42 = mul nsw i64 %41, 11585
  %43 = add nsw i64 %42, 8192
  %44 = ashr i64 %43, 14
  store i64 %44, ptr %10, align 8, !tbaa !12
  %45 = load ptr, ptr %5, align 8, !tbaa !116
  %46 = load i64, ptr %6, align 8, !tbaa !12
  %47 = mul nsw i64 1, %46
  %48 = getelementptr inbounds i32, ptr %45, i64 %47
  %49 = load i32, ptr %48, align 4, !tbaa !19
  %50 = sext i32 %49 to i64
  %51 = mul nsw i64 %50, 6270
  %52 = load ptr, ptr %5, align 8, !tbaa !116
  %53 = load i64, ptr %6, align 8, !tbaa !12
  %54 = mul nsw i64 3, %53
  %55 = getelementptr inbounds i32, ptr %52, i64 %54
  %56 = load i32, ptr %55, align 4, !tbaa !19
  %57 = sext i32 %56 to i64
  %58 = mul nsw i64 %57, 15137
  %59 = sub nsw i64 %51, %58
  %60 = add nsw i64 %59, 8192
  %61 = ashr i64 %60, 14
  store i64 %61, ptr %11, align 8, !tbaa !12
  %62 = load ptr, ptr %5, align 8, !tbaa !116
  %63 = load i64, ptr %6, align 8, !tbaa !12
  %64 = mul nsw i64 1, %63
  %65 = getelementptr inbounds i32, ptr %62, i64 %64
  %66 = load i32, ptr %65, align 4, !tbaa !19
  %67 = sext i32 %66 to i64
  %68 = mul nsw i64 %67, 15137
  %69 = load ptr, ptr %5, align 8, !tbaa !116
  %70 = load i64, ptr %6, align 8, !tbaa !12
  %71 = mul nsw i64 3, %70
  %72 = getelementptr inbounds i32, ptr %69, i64 %71
  %73 = load i32, ptr %72, align 4, !tbaa !19
  %74 = sext i32 %73 to i64
  %75 = mul nsw i64 %74, 6270
  %76 = add nsw i64 %68, %75
  %77 = add nsw i64 %76, 8192
  %78 = ashr i64 %77, 14
  store i64 %78, ptr %12, align 8, !tbaa !12
  %79 = load i64, ptr %9, align 8, !tbaa !12
  %80 = load i64, ptr %12, align 8, !tbaa !12
  %81 = add nsw i64 %79, %80
  %82 = trunc i64 %81 to i32
  %83 = load ptr, ptr %7, align 8, !tbaa !116
  %84 = getelementptr inbounds i32, ptr %83, i64 0
  store i32 %82, ptr %84, align 4, !tbaa !19
  %85 = load i64, ptr %10, align 8, !tbaa !12
  %86 = load i64, ptr %11, align 8, !tbaa !12
  %87 = add nsw i64 %85, %86
  %88 = trunc i64 %87 to i32
  %89 = load ptr, ptr %7, align 8, !tbaa !116
  %90 = getelementptr inbounds i32, ptr %89, i64 1
  store i32 %88, ptr %90, align 4, !tbaa !19
  %91 = load i64, ptr %10, align 8, !tbaa !12
  %92 = load i64, ptr %11, align 8, !tbaa !12
  %93 = sub nsw i64 %91, %92
  %94 = trunc i64 %93 to i32
  %95 = load ptr, ptr %7, align 8, !tbaa !116
  %96 = getelementptr inbounds i32, ptr %95, i64 2
  store i32 %94, ptr %96, align 4, !tbaa !19
  %97 = load i64, ptr %9, align 8, !tbaa !12
  %98 = load i64, ptr %12, align 8, !tbaa !12
  %99 = sub nsw i64 %97, %98
  %100 = trunc i64 %99 to i32
  %101 = load ptr, ptr %7, align 8, !tbaa !116
  %102 = getelementptr inbounds i32, ptr %101, i64 3
  store i32 %100, ptr %102, align 4, !tbaa !19
  call void @llvm.lifetime.end.p0(i64 8, ptr %12) #9
  call void @llvm.lifetime.end.p0(i64 8, ptr %11) #9
  call void @llvm.lifetime.end.p0(i64 8, ptr %10) #9
  call void @llvm.lifetime.end.p0(i64 8, ptr %9) #9
  ret void
}

; Function Attrs: alwaysinline nounwind willreturn memory(none) uwtable
define internal i32 @av_clip_uintp2_c(i32 noundef %0, i32 noundef %1) #3 {
  %3 = alloca i32, align 4
  %4 = alloca i32, align 4
  %5 = alloca i32, align 4
  store i32 %0, ptr %4, align 4, !tbaa !19
  store i32 %1, ptr %5, align 4, !tbaa !19
  %6 = load i32, ptr %4, align 4, !tbaa !19
  %7 = load i32, ptr %5, align 4, !tbaa !19
  %8 = shl i32 1, %7
  %9 = sub i32 %8, 1
  %10 = xor i32 %9, -1
  %11 = and i32 %6, %10
  %12 = icmp ne i32 %11, 0
  br i1 %12, label %13, label %21

13:                                               ; preds = %2
  %14 = load i32, ptr %4, align 4, !tbaa !19
  %15 = xor i32 %14, -1
  %16 = ashr i32 %15, 31
  %17 = load i32, ptr %5, align 4, !tbaa !19
  %18 = shl i32 1, %17
  %19 = sub i32 %18, 1
  %20 = and i32 %16, %19
  store i32 %20, ptr %3, align 4
  br label %23

21:                                               ; preds = %2
  %22 = load i32, ptr %4, align 4, !tbaa !19
  store i32 %22, ptr %3, align 4
  br label %23

23:                                               ; preds = %21, %13
  %24 = load i32, ptr %3, align 4
  ret i32 %24
}

; Function Attrs: nounwind uwtable
define internal void @idct_idct_4x4_add_c(ptr noundef %0, i64 noundef %1, ptr noundef %2, i32 noundef %3) #1 {
  %5 = alloca ptr, align 8
  %6 = alloca i64, align 8
  %7 = alloca ptr, align 8
  %8 = alloca i32, align 4
  %9 = alloca i32, align 4
  %10 = alloca i32, align 4
  %11 = alloca ptr, align 8
  %12 = alloca ptr, align 8
  %13 = alloca [16 x i32], align 16
  %14 = alloca [4 x i32], align 16
  %15 = alloca i32, align 4
  %16 = alloca i32, align 4
  store ptr %0, ptr %5, align 8, !tbaa !10
  store i64 %1, ptr %6, align 8, !tbaa !12
  store ptr %2, ptr %7, align 8, !tbaa !14
  store i32 %3, ptr %8, align 4, !tbaa !19
  call void @llvm.lifetime.start.p0(i64 4, ptr %9) #9
  call void @llvm.lifetime.start.p0(i64 4, ptr %10) #9
  call void @llvm.lifetime.start.p0(i64 8, ptr %11) #9
  %17 = load ptr, ptr %5, align 8, !tbaa !10
  store ptr %17, ptr %11, align 8, !tbaa !14
  call void @llvm.lifetime.start.p0(i64 8, ptr %12) #9
  %18 = load ptr, ptr %7, align 8, !tbaa !14
  store ptr %18, ptr %12, align 8, !tbaa !116
  call void @llvm.lifetime.start.p0(i64 64, ptr %13) #9
  call void @llvm.lifetime.start.p0(i64 16, ptr %14) #9
  %19 = load i64, ptr %6, align 8, !tbaa !12
  %20 = udiv i64 %19, 2
  store i64 %20, ptr %6, align 8, !tbaa !12
  %21 = load i32, ptr %8, align 4, !tbaa !19
  %22 = icmp eq i32 %21, 1
  br i1 %22, label %23, label %75

23:                                               ; preds = %4
  call void @llvm.lifetime.start.p0(i64 4, ptr %15) #9
  %24 = load ptr, ptr %12, align 8, !tbaa !116
  %25 = getelementptr inbounds i32, ptr %24, i64 0
  %26 = load i32, ptr %25, align 4, !tbaa !19
  %27 = sext i32 %26 to i64
  %28 = mul nsw i64 %27, 11585
  %29 = add nsw i64 %28, 8192
  %30 = ashr i64 %29, 14
  %31 = mul nsw i64 %30, 11585
  %32 = add nsw i64 %31, 8192
  %33 = ashr i64 %32, 14
  %34 = trunc i64 %33 to i32
  store i32 %34, ptr %15, align 4, !tbaa !19
  %35 = load ptr, ptr %12, align 8, !tbaa !116
  %36 = getelementptr inbounds i32, ptr %35, i64 0
  store i32 0, ptr %36, align 4, !tbaa !19
  store i32 0, ptr %9, align 4, !tbaa !19
  br label %37

37:                                               ; preds = %71, %23
  %38 = load i32, ptr %9, align 4, !tbaa !19
  %39 = icmp slt i32 %38, 4
  br i1 %39, label %40, label %74

40:                                               ; preds = %37
  store i32 0, ptr %10, align 4, !tbaa !19
  br label %41

41:                                               ; preds = %65, %40
  %42 = load i32, ptr %10, align 4, !tbaa !19
  %43 = icmp slt i32 %42, 4
  br i1 %43, label %44, label %68

44:                                               ; preds = %41
  %45 = load ptr, ptr %11, align 8, !tbaa !14
  %46 = load i32, ptr %10, align 4, !tbaa !19
  %47 = sext i32 %46 to i64
  %48 = load i64, ptr %6, align 8, !tbaa !12
  %49 = mul nsw i64 %47, %48
  %50 = getelementptr inbounds i16, ptr %45, i64 %49
  %51 = load i16, ptr %50, align 2, !tbaa !17
  %52 = zext i16 %51 to i32
  %53 = load i32, ptr %15, align 4, !tbaa !19
  %54 = add i32 %53, 8
  %55 = ashr i32 %54, 4
  %56 = add nsw i32 %52, %55
  %57 = call i32 @av_clip_uintp2_c(i32 noundef %56, i32 noundef 10) #10
  %58 = trunc i32 %57 to i16
  %59 = load ptr, ptr %11, align 8, !tbaa !14
  %60 = load i32, ptr %10, align 4, !tbaa !19
  %61 = sext i32 %60 to i64
  %62 = load i64, ptr %6, align 8, !tbaa !12
  %63 = mul nsw i64 %61, %62
  %64 = getelementptr inbounds i16, ptr %59, i64 %63
  store i16 %58, ptr %64, align 2, !tbaa !17
  br label %65

65:                                               ; preds = %44
  %66 = load i32, ptr %10, align 4, !tbaa !19
  %67 = add nsw i32 %66, 1
  store i32 %67, ptr %10, align 4, !tbaa !19
  br label %41, !llvm.loop !118

68:                                               ; preds = %41
  %69 = load ptr, ptr %11, align 8, !tbaa !14
  %70 = getelementptr inbounds nuw i16, ptr %69, i32 1
  store ptr %70, ptr %11, align 8, !tbaa !14
  br label %71

71:                                               ; preds = %68
  %72 = load i32, ptr %9, align 4, !tbaa !19
  %73 = add nsw i32 %72, 1
  store i32 %73, ptr %9, align 4, !tbaa !19
  br label %37, !llvm.loop !119

74:                                               ; preds = %37
  store i32 1, ptr %16, align 4
  call void @llvm.lifetime.end.p0(i64 4, ptr %15) #9
  br label %140

75:                                               ; preds = %4
  store i32 0, ptr %9, align 4, !tbaa !19
  br label %76

76:                                               ; preds = %89, %75
  %77 = load i32, ptr %9, align 4, !tbaa !19
  %78 = icmp slt i32 %77, 4
  br i1 %78, label %79, label %92

79:                                               ; preds = %76
  %80 = load ptr, ptr %12, align 8, !tbaa !116
  %81 = load i32, ptr %9, align 4, !tbaa !19
  %82 = sext i32 %81 to i64
  %83 = getelementptr inbounds i32, ptr %80, i64 %82
  %84 = getelementptr inbounds [16 x i32], ptr %13, i64 0, i64 0
  %85 = load i32, ptr %9, align 4, !tbaa !19
  %86 = mul nsw i32 %85, 4
  %87 = sext i32 %86 to i64
  %88 = getelementptr inbounds i32, ptr %84, i64 %87
  call void @idct4_1d(ptr noundef %83, i64 noundef 4, ptr noundef %88, i32 noundef 0)
  br label %89

89:                                               ; preds = %79
  %90 = load i32, ptr %9, align 4, !tbaa !19
  %91 = add nsw i32 %90, 1
  store i32 %91, ptr %9, align 4, !tbaa !19
  br label %76, !llvm.loop !120

92:                                               ; preds = %76
  %93 = load ptr, ptr %12, align 8, !tbaa !116
  call void @llvm.memset.p0.i64(ptr align 4 %93, i8 0, i64 64, i1 false)
  store i32 0, ptr %9, align 4, !tbaa !19
  br label %94

94:                                               ; preds = %136, %92
  %95 = load i32, ptr %9, align 4, !tbaa !19
  %96 = icmp slt i32 %95, 4
  br i1 %96, label %97, label %139

97:                                               ; preds = %94
  %98 = getelementptr inbounds [16 x i32], ptr %13, i64 0, i64 0
  %99 = load i32, ptr %9, align 4, !tbaa !19
  %100 = sext i32 %99 to i64
  %101 = getelementptr inbounds i32, ptr %98, i64 %100
  %102 = getelementptr inbounds [4 x i32], ptr %14, i64 0, i64 0
  call void @idct4_1d(ptr noundef %101, i64 noundef 4, ptr noundef %102, i32 noundef 1)
  store i32 0, ptr %10, align 4, !tbaa !19
  br label %103

103:                                              ; preds = %130, %97
  %104 = load i32, ptr %10, align 4, !tbaa !19
  %105 = icmp slt i32 %104, 4
  br i1 %105, label %106, label %133

106:                                              ; preds = %103
  %107 = load ptr, ptr %11, align 8, !tbaa !14
  %108 = load i32, ptr %10, align 4, !tbaa !19
  %109 = sext i32 %108 to i64
  %110 = load i64, ptr %6, align 8, !tbaa !12
  %111 = mul nsw i64 %109, %110
  %112 = getelementptr inbounds i16, ptr %107, i64 %111
  %113 = load i16, ptr %112, align 2, !tbaa !17
  %114 = zext i16 %113 to i32
  %115 = load i32, ptr %10, align 4, !tbaa !19
  %116 = sext i32 %115 to i64
  %117 = getelementptr inbounds [4 x i32], ptr %14, i64 0, i64 %116
  %118 = load i32, ptr %117, align 4, !tbaa !19
  %119 = add i32 %118, 8
  %120 = ashr i32 %119, 4
  %121 = add nsw i32 %114, %120
  %122 = call i32 @av_clip_uintp2_c(i32 noundef %121, i32 noundef 10) #10
  %123 = trunc i32 %122 to i16
  %124 = load ptr, ptr %11, align 8, !tbaa !14
  %125 = load i32, ptr %10, align 4, !tbaa !19
  %126 = sext i32 %125 to i64
  %127 = load i64, ptr %6, align 8, !tbaa !12
  %128 = mul nsw i64 %126, %127
  %129 = getelementptr inbounds i16, ptr %124, i64 %128
  store i16 %123, ptr %129, align 2, !tbaa !17
  br label %130

130:                                              ; preds = %106
  %131 = load i32, ptr %10, align 4, !tbaa !19
  %132 = add nsw i32 %131, 1
  store i32 %132, ptr %10, align 4, !tbaa !19
  br label %103, !llvm.loop !121

133:                                              ; preds = %103
  %134 = load ptr, ptr %11, align 8, !tbaa !14
  %135 = getelementptr inbounds nuw i16, ptr %134, i32 1
  store ptr %135, ptr %11, align 8, !tbaa !14
  br label %136

136:                                              ; preds = %133
  %137 = load i32, ptr %9, align 4, !tbaa !19
  %138 = add nsw i32 %137, 1
  store i32 %138, ptr %9, align 4, !tbaa !19
  br label %94, !llvm.loop !122

139:                                              ; preds = %94
  store i32 0, ptr %16, align 4
  br label %140

140:                                              ; preds = %139, %74
  call void @llvm.lifetime.end.p0(i64 16, ptr %14) #9
  call void @llvm.lifetime.end.p0(i64 64, ptr %13) #9
  call void @llvm.lifetime.end.p0(i64 8, ptr %12) #9
  call void @llvm.lifetime.end.p0(i64 8, ptr %11) #9
  call void @llvm.lifetime.end.p0(i64 4, ptr %10) #9
  call void @llvm.lifetime.end.p0(i64 4, ptr %9) #9
  %141 = load i32, ptr %16, align 4
  switch i32 %141, label %143 [
    i32 0, label %142
    i32 1, label %142
  ]

142:                                              ; preds = %140, %140
  ret void

143:                                              ; preds = %140
  unreachable
}